Certificate:
    Data:
        Version: 3 (0x2)
        Serial Number: 4097 (0x1001)
        Signature Algorithm: md5WithRSAEncryption
        Issuer: C=US, ST=Utah, L=SLC, O=U of U, OU=MSD, CN=certauth
        Validity
            Not Before: Mar 19 16:42:01 2020 GMT
            Not After : Mar 19 16:42:01 2021 GMT
        Subject: C=US, ST=Utah, O=U of U, OU=MSD, CN=client
        Subject Public Key Info:
            Public Key Algorithm: rsaEncryption
                RSA Public-Key: (4096 bit)
                Modulus:
                    00:9c:e5:fa:84:63:60:e2:71:00:bb:85:bb:e0:d5:
                    85:bb:31:9d:fd:bf:89:2a:03:7c:d8:fc:62:e6:9f:
                    f1:7f:14:84:3c:9e:b4:dd:a5:cc:ce:49:55:1a:e3:
                    8c:80:28:30:41:6b:72:e3:71:9e:ef:1e:34:68:44:
                    0e:fe:ba:6b:07:db:ae:b2:08:e3:dc:0c:a3:37:80:
                    b6:82:af:fd:1e:9e:46:98:c6:1b:c2:9f:9b:1e:01:
                    37:52:be:5a:d6:85:06:7a:d6:c4:4c:7a:79:71:9f:
                    06:7c:ca:0f:04:94:c5:c0:5d:32:d0:23:7e:a9:1f:
                    6a:e3:81:b6:f7:6d:5e:cf:91:cb:93:3d:b2:32:f1:
                    73:3c:a1:92:7f:54:3a:95:47:7e:9e:57:08:bd:5e:
                    60:da:aa:90:d1:55:62:f0:f1:7b:f9:a3:24:27:a0:
                    80:10:3f:88:a3:a1:ce:6e:b5:2a:71:db:8a:f2:c9:
                    10:bd:56:8e:ad:6b:6c:3e:ac:35:65:dc:29:03:26:
                    fd:2e:ef:28:26:ae:ed:42:34:98:93:98:a8:c2:e8:
                    36:57:f5:6d:58:72:55:32:c2:37:b4:e7:01:60:6c:
                    1d:49:d9:12:f2:a9:94:8b:7f:81:0a:5b:f2:6f:dd:
                    e6:18:79:b0:55:51:52:3a:6c:a7:9f:de:ba:1c:42:
                    16:e7:5e:55:69:05:16:b2:64:83:e3:9d:1a:45:62:
                    54:a1:8c:56:de:4b:2b:12:27:eb:40:99:6d:4b:f6:
                    3f:53:60:97:76:23:3e:d8:e9:40:45:15:84:a5:57:
                    39:9e:aa:b3:d8:03:ce:15:cc:61:e9:93:83:e6:67:
                    58:f3:9f:bc:d0:83:21:fc:a3:71:73:56:f6:cc:b8:
                    d1:1c:0a:3f:06:0f:dc:b3:9f:7e:14:ac:41:be:19:
                    9d:8b:73:75:17:2f:f1:8b:e2:04:36:c2:aa:79:fa:
                    db:e1:69:a1:04:70:a0:74:e9:26:0e:4c:a3:35:5a:
                    65:f4:36:85:3e:a8:e7:c6:52:79:5c:c7:aa:a3:c0:
                    7d:69:07:1f:48:43:48:e1:9b:d0:24:28:64:1e:25:
                    4a:37:d0:d6:43:5e:2d:1e:68:59:68:a6:81:33:c6:
                    b7:2e:ef:b3:81:d4:f6:61:78:34:f8:66:05:1e:ea:
                    c8:49:42:81:8d:d0:62:d7:5f:26:a5:9e:1f:35:2f:
                    1f:f6:9b:07:91:f4:04:7d:d6:f2:ff:39:08:b6:de:
                    04:b8:75:63:b1:56:a5:ae:e2:ed:85:22:ee:c1:32:
                    c5:a1:8a:c5:90:ce:b8:a0:43:24:92:16:54:ff:ea:
                    a2:6a:db:0d:50:05:46:f7:7f:0b:fa:51:01:5c:69:
                    20:25:dd
                Exponent: 65537 (0x10001)
        X509v3 extensions:
            X509v3 Basic Constraints: 
                CA:FALSE
            Netscape Comment: 
                OpenSSL Generated Certificate
            X509v3 Subject Key Identifier: 
                44:72:11:D2:84:E2:D1:88:9D:4A:0E:97:65:C1:4B:7B:C9:76:F6:F6
            X509v3 Authority Key Identifier: 
                keyid:3B:A1:EB:13:5F:8B:62:35:7C:12:D2:C7:C7:E2:2B:42:10:5F:D2:C9
                DirName:/C=US/ST=Utah/L=SLC/O=U of U/OU=MSD/CN=certauth
                serial:69:48:FC:F7:6A:84:B0:9B:FA:D7:1E:F5:70:F8:11:EC:88:96:30:67

    Signature Algorithm: md5WithRSAEncryption
         22:a8:95:b4:45:f9:d1:fe:77:38:a3:37:3f:1e:4e:3b:04:3c:
         3c:0d:1a:f5:e3:e6:4a:3f:76:13:1a:5a:d7:7e:47:b1:f7:f3:
         5a:45:71:66:24:5f:f5:6c:60:4b:c9:ca:3e:35:87:bb:f3:b0:
         09:8b:a4:9a:4f:16:d1:ec:26:9a:ed:36:1b:49:15:ba:99:ab:
         88:36:e1:7d:f8:91:a6:35:26:af:c8:71:49:ec:af:d8:73:54:
         a7:7a:1c:b7:5c:99:5b:c8:4d:7c:91:fe:e2:ee:bc:53:f0:92:
         67:13:43:b8:72:f9:76:c5:c4:f1:9f:31:36:1e:57:8e:57:49:
         b1:65:56:b7:4e:86:7f:f8:6a:f6:75:37:50:07:5b:04:29:07:
         e3:8d:a1:72:80:91:7d:1a:f5:e2:72:d1:ec:f3:23:64:0e:a7:
         4b:c6:4f:21:d1:d9:95:a2:86:5e:39:8a:73:23:0f:bf:7c:07:
         28:cd:12:85:40:45:f1:59:ea:16:2b:ec:d0:8e:e8:a1:08:6f:
         0f:98:0a:75:94:97:49:e6:16:e5:ed:40:f3:d4:3c:ee:c6:1e:
         6c:c6:c3:0d:0e:4f:03:30:a2:0a:ec:57:87:02:c9:f4:db:bb:
         ad:31:31:f4:d3:a7:65:f8:7c:5f:c4:4a:7c:90:78:b3:6f:a3:
         34:89:94:36:fe:e9:87:32:00:ee:bb:b0:97:61:73:83:6a:32:
         85:5a:3b:16:7b:82:87:76:1e:63:fa:16:5c:38:f6:f2:66:34:
         00:69:fb:ef:3e:92:6c:df:be:7b:59:f4:b7:8a:c9:5f:eb:35:
         07:a4:ee:85:49:32:04:90:ee:66:5f:24:ea:71:89:34:da:dd:
         5e:7b:7c:33:02:08:14:ed:fa:d1:75:27:2d:4b:68:cd:27:b9:
         bf:3b:0c:33:e9:7f:60:43:33:a3:0a:7b:26:b1:21:c5:4c:91:
         3e:d4:0f:59:68:d0:4f:3e:1d:7c:d3:d8:63:84:a9:0b:58:59:
         7a:c4:26:8d:4e:86:36:89:2b:b8:6f:b7:c3:9f:a2:3d:10:81:
         f1:d2:47:30:0c:86:9b:20:46:f0:e7:11:ed:ff:af:fd:22:0b:
         5e:94:52:0f:30:e3:fa:23:d6:27:c9:5f:a9:99:9b:35:c8:61:
         40:f2:e9:0a:77:ea:b7:43:54:b9:55:22:e2:a0:d7:7e:64:17:
         15:d4:ca:4e:cf:cd:ae:a5:56:96:54:d1:14:62:65:0d:36:e4:
         4c:0d:05:a3:31:58:94:87:0c:1c:84:37:b0:89:e6:fe:cf:48:
         4f:af:fc:31:05:c5:22:34:ab:c4:1f:73:60:c8:d9:f4:5d:d5:
         97:38:6d:7c:aa:54:54:37
-----BEGIN CERTIFICATE-----
MIIGHDCCBASgAwIBAgICEAEwDQYJKoZIhvcNAQEEBQAwXDELMAkGA1UEBhMCVVMx
DTALBgNVBAgMBFV0YWgxDDAKBgNVBAcMA1NMQzEPMA0GA1UECgwGVSBvZiBVMQww
CgYDVQQLDANNU0QxETAPBgNVBAMMCGNlcnRhdXRoMB4XDTIwMDMxOTE2NDIwMVoX
DTIxMDMxOTE2NDIwMVowTDELMAkGA1UEBhMCVVMxDTALBgNVBAgMBFV0YWgxDzAN
BgNVBAoMBlUgb2YgVTEMMAoGA1UECwwDTVNEMQ8wDQYDVQQDDAZjbGllbnQwggIi
MA0GCSqGSIb3DQEBAQUAA4ICDwAwggIKAoICAQCc5fqEY2DicQC7hbvg1YW7MZ39
v4kqA3zY/GLmn/F/FIQ8nrTdpczOSVUa44yAKDBBa3LjcZ7vHjRoRA7+umsH266y
COPcDKM3gLaCr/0enkaYxhvCn5seATdSvlrWhQZ61sRMenlxnwZ8yg8ElMXAXTLQ
I36pH2rjgbb3bV7PkcuTPbIy8XM8oZJ/VDqVR36eVwi9XmDaqpDRVWLw8Xv5oyQn
oIAQP4ijoc5utSpx24ryyRC9Vo6ta2w+rDVl3CkDJv0u7ygmru1CNJiTmKjC6DZX
9W1YclUywje05wFgbB1J2RLyqZSLf4EKW/Jv3eYYebBVUVI6bKef3rocQhbnXlVp
BRayZIPjnRpFYlShjFbeSysSJ+tAmW1L9j9TYJd2Iz7Y6UBFFYSlVzmeqrPYA84V
zGHpk4PmZ1jzn7zQgyH8o3FzVvbMuNEcCj8GD9yzn34UrEG+GZ2Lc3UXL/GL4gQ2
wqp5+tvhaaEEcKB06SYOTKM1WmX0NoU+qOfGUnlcx6qjwH1pBx9IQ0jhm9AkKGQe
JUo30NZDXi0eaFlopoEzxrcu77OB1PZheDT4ZgUe6shJQoGN0GLXXyalnh81Lx/2
mweR9AR91vL/OQi23gS4dWOxVqWu4u2FIu7BMsWhisWQzrigQySSFlT/6qJq2w1Q
BUb3fwv6UQFcaSAl3QIDAQABo4H3MIH0MAkGA1UdEwQCMAAwLAYJYIZIAYb4QgEN
BB8WHU9wZW5TU0wgR2VuZXJhdGVkIENlcnRpZmljYXRlMB0GA1UdDgQWBBREchHS
hOLRiJ1KDpdlwUt7yXb29jCBmQYDVR0jBIGRMIGOgBQ7oesTX4tiNXwS0sfH4itC
EF/SyaFgpF4wXDELMAkGA1UEBhMCVVMxDTALBgNVBAgMBFV0YWgxDDAKBgNVBAcM
A1NMQzEPMA0GA1UECgwGVSBvZiBVMQwwCgYDVQQLDANNU0QxETAPBgNVBAMMCGNl
cnRhdXRoghRpSPz3aoSwm/rXHvVw+BHsiJYwZzANBgkqhkiG9w0BAQQFAAOCAgEA
IqiVtEX50f53OKM3Px5OOwQ8PA0a9ePmSj92Expa135HsffzWkVxZiRf9WxgS8nK
PjWHu/OwCYukmk8W0ewmmu02G0kVupmriDbhffiRpjUmr8hxSeyv2HNUp3oct1yZ
W8hNfJH+4u68U/CSZxNDuHL5dsXE8Z8xNh5XjldJsWVWt06Gf/hq9nU3UAdbBCkH
442hcoCRfRr14nLR7PMjZA6nS8ZPIdHZlaKGXjmKcyMPv3wHKM0ShUBF8VnqFivs
0I7ooQhvD5gKdZSXSeYW5e1A89Q87sYebMbDDQ5PAzCiCuxXhwLJ9Nu7rTEx9NOn
Zfh8X8RKfJB4s2+jNImUNv7phzIA7ruwl2Fzg2oyhVo7FnuCh3YeY/oWXDj28mY0
AGn77z6SbN++e1n0t4rJX+s1B6TuhUkyBJDuZl8k6nGJNNrdXnt8MwIIFO360XUn
LUtozSe5vzsMM+l/YEMzowp7JrEhxUyRPtQPWWjQTz4dfNPYY4SpC1hZesQmjU6G
NokruG+3w5+iPRCB8dJHMAyGmyBG8OcR7f+v/SILXpRSDzDj+iPWJ8lfqZmbNchh
QPLpCnfqt0NUuVUi4qDXfmQXFdTKTs/NrqVWllTRFGJlDTbkTA0FozFYlIcMHIQ3
sInm/s9IT6/8MQXFIjSrxB9zYMjZ9F3VlzhtfKpUVDc=
-----END CERTIFICATE-----
