Certificate:
    Data:
        Version: 3 (0x2)
        Serial Number: 4096 (0x1000)
        Signature Algorithm: md5WithRSAEncryption
        Issuer: C=US, ST=Utah, L=SLC, O=U of U, OU=MSD, CN=certauth
        Validity
            Not Before: Mar 19 16:41:27 2020 GMT
            Not After : Mar 19 16:41:27 2021 GMT
        Subject: C=US, ST=Utah, O=U of U, OU=MSD, CN=server
        Subject Public Key Info:
            Public Key Algorithm: rsaEncryption
                RSA Public-Key: (4096 bit)
                Modulus:
                    00:f1:f7:d2:ab:e1:1d:c2:1b:25:33:3d:fe:96:c0:
                    47:19:c1:5c:a7:6e:02:7a:b1:1b:9e:34:f4:06:72:
                    2b:41:f5:ee:e2:c6:6c:55:9b:2a:15:08:de:08:c6:
                    d1:86:17:7c:18:22:aa:d3:d5:1d:b7:66:5e:39:e4:
                    f4:e2:25:a2:25:13:5c:a8:a3:5c:97:b2:51:ba:8b:
                    76:f0:58:d6:fd:2a:5c:44:ec:3c:30:98:39:3c:10:
                    81:f3:c5:b4:be:be:c1:48:cd:c0:f2:2c:82:3c:a2:
                    81:be:19:da:92:3d:c8:5c:cf:20:b3:ef:a9:b2:7f:
                    ac:d4:de:b4:b2:ec:14:a7:9a:cd:09:25:23:f4:0a:
                    74:ad:ab:38:6c:0f:b1:f2:16:65:eb:7e:22:31:ec:
                    18:44:e6:25:de:6e:67:b8:5b:9e:e4:ba:97:38:fd:
                    25:cc:24:5a:2a:93:8c:13:83:40:e3:3c:9d:8b:99:
                    fc:d3:26:ce:ee:f8:97:8b:85:41:d0:f8:4b:42:1c:
                    f8:0e:ed:8a:a8:12:80:9a:18:8e:2e:cd:fd:1b:e4:
                    bb:19:87:28:1e:86:4b:15:a3:b8:30:1b:af:4d:7d:
                    5d:25:37:a2:84:45:55:1a:47:9e:c5:38:c4:b9:c4:
                    cc:d1:cb:ef:15:e5:ae:79:1b:dc:d6:ac:5d:f0:21:
                    f0:6b:13:0f:b7:c7:44:10:ca:3d:6d:bf:86:4b:ef:
                    c5:4b:2f:a1:2f:84:2f:db:55:12:ea:9c:ed:15:fd:
                    df:17:12:6a:57:35:55:b4:34:9b:f3:be:86:68:25:
                    03:ea:85:60:b8:98:f6:3b:13:a5:e0:63:cb:d6:c3:
                    05:1c:6f:d6:79:90:73:dc:59:15:63:d3:67:d8:33:
                    1c:12:f8:de:37:53:87:1e:97:55:6a:21:f7:34:7c:
                    05:1a:bb:c2:f0:20:6a:55:66:1c:bc:e7:72:fc:54:
                    49:00:8b:7b:19:5f:1f:01:1a:ca:fa:e7:1a:fc:15:
                    07:ac:eb:c9:b5:00:1b:77:f9:f9:46:cc:e6:b8:35:
                    3e:10:4a:02:b5:46:ca:90:44:e1:ce:08:76:b7:63:
                    bb:5e:8b:5f:df:98:cc:43:24:5e:2f:03:75:65:25:
                    09:8c:e1:2f:8c:f3:5e:26:ce:6c:8d:0b:0d:0e:3f:
                    4d:fc:c7:e8:a6:5d:a0:81:41:c0:bd:37:73:91:55:
                    f6:7e:33:91:a6:60:95:4e:59:8e:d2:11:25:dd:6c:
                    77:06:25:b5:ae:40:68:88:ed:67:c2:8b:31:5e:1f:
                    4a:5a:ff:69:9d:c7:67:1e:71:91:34:8f:19:c6:e8:
                    b7:ea:24:11:75:43:49:b7:35:59:52:a5:34:a7:07:
                    20:10:51
                Exponent: 65537 (0x10001)
        X509v3 extensions:
            X509v3 Basic Constraints: 
                CA:FALSE
            Netscape Comment: 
                OpenSSL Generated Certificate
            X509v3 Subject Key Identifier: 
                78:04:8F:D0:D4:80:7F:88:0A:09:58:BD:32:2C:DE:47:09:23:69:20
            X509v3 Authority Key Identifier: 
                keyid:3B:A1:EB:13:5F:8B:62:35:7C:12:D2:C7:C7:E2:2B:42:10:5F:D2:C9
                DirName:/C=US/ST=Utah/L=SLC/O=U of U/OU=MSD/CN=certauth
                serial:69:48:FC:F7:6A:84:B0:9B:FA:D7:1E:F5:70:F8:11:EC:88:96:30:67

    Signature Algorithm: md5WithRSAEncryption
         75:1a:94:af:c2:6e:27:b3:b1:a5:bb:17:a9:46:61:db:52:1d:
         51:be:23:a9:86:86:d6:e5:27:d6:2f:bf:cf:34:88:e7:60:0e:
         45:76:90:31:5c:1e:55:f1:71:9d:26:8b:71:ac:ff:46:37:6c:
         d6:c8:db:4d:3c:4c:43:cb:b1:5f:a8:c1:77:ff:97:49:52:7e:
         8d:04:21:74:4d:ee:fc:8a:2c:84:af:1a:90:d7:f5:7d:fd:1f:
         75:03:56:19:df:da:06:aa:45:d6:3d:f8:82:5a:db:df:6d:37:
         4d:2b:01:a7:22:29:68:0e:b4:17:3d:30:03:88:e3:68:a1:fd:
         1c:a3:47:ba:12:b6:80:f6:ec:f3:79:a5:c6:f0:65:d9:91:63:
         8c:61:30:74:a3:97:e5:f7:8b:ee:2b:a5:81:8e:d4:7a:1b:98:
         17:13:fc:b8:1e:10:04:9f:b0:9c:c1:a1:c5:8a:ab:d1:e7:be:
         5e:c5:2c:01:2f:b1:b9:a9:3f:db:f6:67:2d:0e:6d:30:51:d0:
         44:ec:c2:ce:d7:9c:fe:83:97:57:13:cf:85:57:2b:80:e9:2a:
         55:e2:e6:2f:18:c2:28:08:5d:e1:ba:88:a8:5f:19:99:94:75:
         95:f5:d1:50:a8:1d:91:1a:08:8b:29:62:f4:d2:14:c2:6a:28:
         1a:a7:72:5d:80:d4:91:52:73:32:ca:07:9a:76:5d:f0:e9:6c:
         ee:a9:57:ae:57:4a:45:b1:ca:24:50:d2:31:f8:47:fc:45:3e:
         25:ce:a0:0f:4b:77:da:90:94:a5:e6:f2:d6:fa:cc:b6:93:4c:
         78:bb:71:23:0e:95:b6:2f:de:7c:1d:79:30:0b:b7:4f:a0:f8:
         54:c8:26:92:85:6c:47:0a:cd:41:a7:a7:da:a6:48:9e:5e:87:
         cf:e1:f3:2d:20:a1:57:2e:17:c0:c1:83:0f:3e:4a:b5:d7:dc:
         fc:b2:d9:48:d2:ae:03:7c:20:16:3d:d2:b0:a7:81:99:3d:21:
         88:f9:62:b2:ba:ca:73:44:a7:7a:23:0a:88:20:b3:67:5f:cd:
         3c:33:23:a8:eb:d9:3d:bf:53:d3:3e:b1:bc:63:c7:b3:b3:01:
         0d:83:34:12:0a:4a:1e:10:52:e0:53:72:22:56:a6:eb:56:fe:
         66:75:b3:8e:fd:2b:06:5d:7d:8c:14:28:d3:6e:de:f4:4b:ed:
         14:4f:4a:fb:4c:d2:22:31:ab:34:fb:9a:51:a8:ac:ce:d4:b5:
         ee:05:fb:f5:be:2e:6e:fa:7d:e2:8c:40:25:0d:14:2e:b2:ac:
         04:df:b1:25:de:21:c6:11:b2:53:ef:05:ab:6c:b8:4e:83:8e:
         ca:f2:95:3e:ec:f3:0d:57
-----BEGIN CERTIFICATE-----
MIIGHDCCBASgAwIBAgICEAAwDQYJKoZIhvcNAQEEBQAwXDELMAkGA1UEBhMCVVMx
DTALBgNVBAgMBFV0YWgxDDAKBgNVBAcMA1NMQzEPMA0GA1UECgwGVSBvZiBVMQww
CgYDVQQLDANNU0QxETAPBgNVBAMMCGNlcnRhdXRoMB4XDTIwMDMxOTE2NDEyN1oX
DTIxMDMxOTE2NDEyN1owTDELMAkGA1UEBhMCVVMxDTALBgNVBAgMBFV0YWgxDzAN
BgNVBAoMBlUgb2YgVTEMMAoGA1UECwwDTVNEMQ8wDQYDVQQDDAZzZXJ2ZXIwggIi
MA0GCSqGSIb3DQEBAQUAA4ICDwAwggIKAoICAQDx99Kr4R3CGyUzPf6WwEcZwVyn
bgJ6sRueNPQGcitB9e7ixmxVmyoVCN4IxtGGF3wYIqrT1R23Zl455PTiJaIlE1yo
o1yXslG6i3bwWNb9KlxE7DwwmDk8EIHzxbS+vsFIzcDyLII8ooG+GdqSPchczyCz
76myf6zU3rSy7BSnms0JJSP0CnStqzhsD7HyFmXrfiIx7BhE5iXebme4W57kupc4
/SXMJFoqk4wTg0DjPJ2LmfzTJs7u+JeLhUHQ+EtCHPgO7YqoEoCaGI4uzf0b5LsZ
hygehksVo7gwG69NfV0lN6KERVUaR57FOMS5xMzRy+8V5a55G9zWrF3wIfBrEw+3
x0QQyj1tv4ZL78VLL6EvhC/bVRLqnO0V/d8XEmpXNVW0NJvzvoZoJQPqhWC4mPY7
E6XgY8vWwwUcb9Z5kHPcWRVj02fYMxwS+N43U4cel1VqIfc0fAUau8LwIGpVZhy8
53L8VEkAi3sZXx8BGsr65xr8FQes68m1ABt3+flGzOa4NT4QSgK1RsqQROHOCHa3
Y7tei1/fmMxDJF4vA3VlJQmM4S+M814mzmyNCw0OP038x+imXaCBQcC9N3ORVfZ+
M5GmYJVOWY7SESXdbHcGJbWuQGiI7WfCizFeH0pa/2mdx2cecZE0jxnG6LfqJBF1
Q0m3NVlSpTSnByAQUQIDAQABo4H3MIH0MAkGA1UdEwQCMAAwLAYJYIZIAYb4QgEN
BB8WHU9wZW5TU0wgR2VuZXJhdGVkIENlcnRpZmljYXRlMB0GA1UdDgQWBBR4BI/Q
1IB/iAoJWL0yLN5HCSNpIDCBmQYDVR0jBIGRMIGOgBQ7oesTX4tiNXwS0sfH4itC
EF/SyaFgpF4wXDELMAkGA1UEBhMCVVMxDTALBgNVBAgMBFV0YWgxDDAKBgNVBAcM
A1NMQzEPMA0GA1UECgwGVSBvZiBVMQwwCgYDVQQLDANNU0QxETAPBgNVBAMMCGNl
cnRhdXRoghRpSPz3aoSwm/rXHvVw+BHsiJYwZzANBgkqhkiG9w0BAQQFAAOCAgEA
dRqUr8JuJ7OxpbsXqUZh21IdUb4jqYaG1uUn1i+/zzSI52AORXaQMVweVfFxnSaL
caz/Rjds1sjbTTxMQ8uxX6jBd/+XSVJ+jQQhdE3u/IoshK8akNf1ff0fdQNWGd/a
BqpF1j34glrb3203TSsBpyIpaA60Fz0wA4jjaKH9HKNHuhK2gPbs83mlxvBl2ZFj
jGEwdKOX5feL7iulgY7UehuYFxP8uB4QBJ+wnMGhxYqr0ee+XsUsAS+xuak/2/Zn
LQ5tMFHQROzCztec/oOXVxPPhVcrgOkqVeLmLxjCKAhd4bqIqF8ZmZR1lfXRUKgd
kRoIiyli9NIUwmooGqdyXYDUkVJzMsoHmnZd8Ols7qlXrldKRbHKJFDSMfhH/EU+
Jc6gD0t32pCUpeby1vrMtpNMeLtxIw6Vti/efB15MAu3T6D4VMgmkoVsRwrNQaen
2qZInl6Hz+HzLSChVy4XwMGDDz5Ktdfc/LLZSNKuA3wgFj3SsKeBmT0hiPlisrrK
c0SneiMKiCCzZ1/NPDMjqOvZPb9T0z6xvGPHs7MBDYM0EgpKHhBS4FNyIlam61b+
ZnWzjv0rBl19jBQo027e9EvtFE9K+0zSIjGrNPuaUaisztS17gX79b4ubvp94oxA
JQ0ULrKsBN+xJd4hxhGyU+8Fq2y4ToOOyvKVPuzzDVc=
-----END CERTIFICATE-----
